target datalayout = "e-m:e-p270:32:32-p271:32:32-p272:64:64-i64:64-i128:128-f80:128-n8:16:32:64-S128"
target triple = "x86_64-pc-linux-gnu"

%struct.__va_list_tag = type { i32, i32, ptr, ptr }
%"class.std::__cxx11::basic_string" = type { %"struct.std::__cxx11::basic_string<char>::_Alloc_hider", i64, %union.anon }
%"struct.std::__cxx11::basic_string<char>::_Alloc_hider" = type { ptr }
%union.anon = type { i64, [8 x i8] }

; Function Attrs: mustprogress uwtable
define void @_ZN6google8protobuf12StringPrintfB5cxx11EPKcz(ptr dead_on_unwind noalias writable sret(%"class.std::__cxx11::basic_string") align 8 %0, ptr noundef %1, ...) #4 personality ptr @__gxx_personality_v0 {
  %3 = alloca ptr, align 8
  %4 = alloca ptr, align 8
  %5 = alloca [1 x %struct.__va_list_tag], align 16
  %6 = alloca i1, align 1
  %7 = alloca ptr, align 8
  %8 = alloca i32, align 4
  store ptr %0, ptr %3, align 8
  store ptr %1, ptr %4, align 8
  %9 = getelementptr inbounds [1 x %struct.__va_list_tag], ptr %5, i64 0, i64 0
  call void @llvm.va_start.p0(ptr %9)
  store i1 false, ptr %6, align 1
  call void @_ZNSt7__cxx1112basic_stringIcSt11char_traitsIcESaIcEEC1Ev(ptr noundef nonnull align 8 dereferenceable(32) %0) #3
  %10 = load ptr, ptr %4, align 8
  %11 = getelementptr inbounds [1 x %struct.__va_list_tag], ptr %5, i64 0, i64 0
  invoke void @_ZN6google8protobuf13StringAppendVEPNSt7__cxx1112basic_stringIcSt11char_traitsIcESaIcEEEPKcP13__va_list_tag(ptr noundef %0, ptr noundef %10, ptr noundef %11)
          to label %12 unwind label %15

12:                                               ; preds = %2
  %13 = getelementptr inbounds [1 x %struct.__va_list_tag], ptr %5, i64 0, i64 0
  call void @llvm.va_end.p0(ptr %13)
  store i1 true, ptr %6, align 1
  %14 = load i1, ptr %6, align 1
  br i1 %14, label %20, label %19

15:                                               ; preds = %2
  %16 = landingpad { ptr, i32 }
          cleanup
  %17 = extractvalue { ptr, i32 } %16, 0
  store ptr %17, ptr %7, align 8
  %18 = extractvalue { ptr, i32 } %16, 1
  store i32 %18, ptr %8, align 4
  call void @_ZNSt7__cxx1112basic_stringIcSt11char_traitsIcESaIcEED1Ev(ptr noundef nonnull align 8 dereferenceable(32) %0) #3
  br label %21

19:                                               ; preds = %12
  call void @_ZNSt7__cxx1112basic_stringIcSt11char_traitsIcESaIcEED1Ev(ptr noundef nonnull align 8 dereferenceable(32) %0) #3
  br label %20

20:                                               ; preds = %19, %12
  ret void

21:                                               ; preds = %15
  %22 = load ptr, ptr %7, align 8
  %23 = load i32, ptr %8, align 4
  %24 = insertvalue { ptr, i32 } poison, ptr %22, 0
  %25 = insertvalue { ptr, i32 } %24, i32 %23, 1
  resume { ptr, i32 } %25
}